target datalayout = "e-m:e-p270:32:32-p271:32:32-p272:64:64-i64:64-i128:128-f80:128-n8:16:32:64-S128"
target triple = "x86_64-pc-linux-gnu"

%struct.CalloutNameListType = type { i32, i32, ptr }
%struct.CalloutNameListEntry = type { i32, i32, ptr, ptr, i32, i32, [4 x i32], [4 x %union.OnigValue], ptr }
%union.OnigValue = type { %struct.anon }
%struct.anon = type { ptr, ptr }

@GlobalCalloutNameList = internal global ptr null, align 8

; Function Attrs: nounwind uwtable
define dso_local i32 @onig_get_callout_type_by_name_id(i32 noundef %0) #0 {
  %2 = alloca i32, align 4
  %3 = alloca i32, align 4
  store i32 %0, ptr %3, align 4, !tbaa !10
  %4 = load i32, ptr %3, align 4, !tbaa !10
  %5 = icmp slt i32 %4, 0
  br i1 %5, label %12, label %6

6:                                                ; preds = %1
  %7 = load i32, ptr %3, align 4, !tbaa !10
  %8 = load ptr, ptr @GlobalCalloutNameList, align 8, !tbaa !9
  %9 = getelementptr inbounds nuw %struct.CalloutNameListType, ptr %8, i32 0, i32 0
  %10 = load i32, ptr %9, align 8, !tbaa !75
  %11 = icmp sge i32 %7, %10
  br i1 %11, label %12, label %13

12:                                               ; preds = %6, %1
  store i32 0, ptr %2, align 4
  br label %22

13:                                               ; preds = %6
  %14 = load ptr, ptr @GlobalCalloutNameList, align 8, !tbaa !9
  %15 = getelementptr inbounds nuw %struct.CalloutNameListType, ptr %14, i32 0, i32 2
  %16 = load ptr, ptr %15, align 8, !tbaa !78
  %17 = load i32, ptr %3, align 4, !tbaa !10
  %18 = sext i32 %17 to i64
  %19 = getelementptr inbounds %struct.CalloutNameListEntry, ptr %16, i64 %18
  %20 = getelementptr inbounds nuw %struct.CalloutNameListEntry, ptr %19, i32 0, i32 0
  %21 = load i32, ptr %20, align 8, !tbaa !79
  store i32 %21, ptr %2, align 4
  br label %22

22:                                               ; preds = %13, %12
  %23 = load i32, ptr %2, align 4
  ret i32 %23
}